target datalayout = "e-m:e-p270:32:32-p271:32:32-p272:64:64-i64:64-i128:128-f80:128-n8:16:32:64-S128"
target triple = "x86_64-pc-linux-gnu"

; Function Attrs: nounwind uwtable
define i32 @avfilter_graph_create_filter(ptr noundef %0, ptr noundef %1, ptr noundef %2, ptr noundef %3, ptr noundef %4, ptr noundef %5) #0 {
  %7 = alloca i32, align 4
  %8 = alloca ptr, align 8
  %9 = alloca ptr, align 8
  %10 = alloca ptr, align 8
  %11 = alloca ptr, align 8
  %12 = alloca ptr, align 8
  %13 = alloca ptr, align 8
  %14 = alloca i32, align 4
  %15 = alloca i32, align 4
  store ptr %0, ptr %8, align 8, !tbaa !51
  store ptr %1, ptr %9, align 8, !tbaa !52
  store ptr %2, ptr %10, align 8, !tbaa !53
  store ptr %3, ptr %11, align 8, !tbaa !53
  store ptr %4, ptr %12, align 8, !tbaa !54
  store ptr %5, ptr %13, align 8, !tbaa !9
  call void @llvm.lifetime.start.p0(i64 4, ptr %14) #11
  %16 = load ptr, ptr %13, align 8, !tbaa !9
  %17 = load ptr, ptr %9, align 8, !tbaa !52
  %18 = load ptr, ptr %10, align 8, !tbaa !53
  %19 = call ptr @avfilter_graph_alloc_filter(ptr noundef %16, ptr noundef %17, ptr noundef %18)
  %20 = load ptr, ptr %8, align 8, !tbaa !51
  store ptr %19, ptr %20, align 8, !tbaa !18
  %21 = load ptr, ptr %8, align 8, !tbaa !51
  %22 = load ptr, ptr %21, align 8, !tbaa !18
  %23 = icmp ne ptr %22, null
  br i1 %23, label %25, label %24

24:                                               ; preds = %6
  store i32 -12, ptr %7, align 4
  store i32 1, ptr %15, align 4
  br label %39

25:                                               ; preds = %6
  %26 = load ptr, ptr %8, align 8, !tbaa !51
  %27 = load ptr, ptr %26, align 8, !tbaa !18
  %28 = load ptr, ptr %11, align 8, !tbaa !53
  %29 = call i32 @avfilter_init_str(ptr noundef %27, ptr noundef %28)
  store i32 %29, ptr %14, align 4, !tbaa !20
  %30 = load i32, ptr %14, align 4, !tbaa !20
  %31 = icmp slt i32 %30, 0
  br i1 %31, label %32, label %33

32:                                               ; preds = %25
  br label %34

33:                                               ; preds = %25
  store i32 0, ptr %7, align 4
  store i32 1, ptr %15, align 4
  br label %39

34:                                               ; preds = %32
  %35 = load ptr, ptr %8, align 8, !tbaa !51
  %36 = load ptr, ptr %35, align 8, !tbaa !18
  call void @avfilter_free(ptr noundef %36)
  %37 = load ptr, ptr %8, align 8, !tbaa !51
  store ptr null, ptr %37, align 8, !tbaa !18
  %38 = load i32, ptr %14, align 4, !tbaa !20
  store i32 %38, ptr %7, align 4
  store i32 1, ptr %15, align 4
  br label %39

39:                                               ; preds = %34, %33, %24
  call void @llvm.lifetime.end.p0(i64 4, ptr %14) #11
  %40 = load i32, ptr %7, align 4
  ret i32 %40
}