; Function Attrs: nounwind uwtable
define range(i32 -2147483648, 1) i32 @avfilter_graph_create_filter(ptr noundef captures(none) initializes((0, 8)) %0, ptr noundef %1, ptr noundef %2, ptr noundef %3, ptr noundef readnone captures(none) %4, ptr noundef %5) local_unnamed_addr #0 {
  %7 = tail call ptr @avfilter_graph_alloc_filter(ptr noundef %5, ptr noundef %1, ptr noundef %2)
  store ptr %7, ptr %0, align 8, !tbaa !18
  %.not = icmp eq ptr %7, null
  br i1 %.not, label %13, label %8

8:                                                ; preds = %6
  %9 = tail call i32 @avfilter_init_str(ptr noundef nonnull %7, ptr noundef %3) #14
  %10 = icmp slt i32 %9, 0
  br i1 %10, label %11, label %13

11:                                               ; preds = %8
  %12 = load ptr, ptr %0, align 8, !tbaa !18
  tail call void @avfilter_free(ptr noundef %12) #14
  store ptr null, ptr %0, align 8, !tbaa !18
  br label %13

13:                                               ; preds = %8, %6, %11
  %.0 = phi i32 [ %9, %11 ], [ -12, %6 ], [ 0, %8 ]
  ret i32 %.0
}